Certificate:
    Data:
        Version: 3 (0x2)
        Serial Number:
            e6:bc:99:4a:7c:34:3d:f8
    Signature Algorithm: sha256WithRSAEncryption
        Issuer: C=UA, ST=CN, O=vimana, OU=vimana-CN, CN=al.cn.ua/emailAddress=al@al.cn.ua
        Validity
            Not Before: Aug 15 10:53:46 2018 GMT
            Not After : Aug 14 10:53:46 2021 GMT
        Subject: C=UA, ST=CN, O=vimana, OU=vimana-CN, CN=al.cn.ua/emailAddress=al@al.cn.ua
        Subject Public Key Info:
            Public Key Algorithm: rsaEncryption
                Public-Key: (2048 bit)
                Modulus:
                    00:ed:c9:69:26:1c:c6:91:c9:d0:43:1f:71:17:26:
                    da:02:aa:bd:62:16:d5:d3:25:8c:2d:75:86:fd:0d:
                    af:69:10:61:d1:e9:de:41:95:97:85:d8:9c:5e:27:
                    0b:c8:c0:10:de:73:9f:e9:cd:13:3e:52:36:5e:27:
                    bb:ba:53:a8:46:65:7b:30:ab:a8:d2:a5:85:02:73:
                    0a:8a:62:02:54:d9:77:ce:5b:5c:0a:9b:49:27:54:
                    e6:a8:9f:10:83:e1:a6:90:b2:2f:14:74:a1:af:b9:
                    d9:a9:b3:3e:00:a3:8a:d7:e0:1b:ae:47:8a:01:a6:
                    f6:87:33:0b:4a:04:05:4f:54:7b:f3:9a:51:c3:85:
                    6d:3c:85:06:f9:87:bb:68:89:b1:03:3d:58:f4:a4:
                    47:f4:e4:e7:09:d3:94:e0:3e:b9:71:d0:20:ad:6f:
                    3e:3d:2d:47:8d:89:a5:b1:81:01:cf:b0:69:88:36:
                    e8:d0:f0:9b:e4:12:d4:50:07:e7:aa:a8:19:60:d3:
                    33:dc:77:bf:f0:d2:3a:79:81:5c:fc:89:62:97:61:
                    e9:de:84:10:44:bd:7e:0e:c1:e0:75:5c:49:b5:ff:
                    e5:03:8c:ea:67:29:e3:9a:e2:fb:69:14:1e:8e:58:
                    18:16:27:31:15:30:ca:cd:61:35:e2:a4:ac:49:2b:
                    bd:df
                Exponent: 65537 (0x10001)
        X509v3 extensions:
            X509v3 Subject Key Identifier: 
                10:F8:A2:30:08:04:12:61:DA:F8:DB:E9:62:90:1E:C7:90:BA:E7:01
            X509v3 Authority Key Identifier: 
                keyid:10:F8:A2:30:08:04:12:61:DA:F8:DB:E9:62:90:1E:C7:90:BA:E7:01

            X509v3 Basic Constraints: critical
                CA:TRUE
    Signature Algorithm: sha256WithRSAEncryption
         d0:c8:2f:1b:c6:84:17:73:16:3a:7a:96:06:24:d4:ea:49:fe:
         5f:d4:63:29:4a:b7:bc:09:18:03:c5:f4:bc:da:f2:90:53:14:
         93:d9:e4:54:0a:69:21:59:c2:cd:ae:30:f4:02:25:f6:92:17:
         41:ef:17:a3:dd:b2:15:78:06:04:4c:63:0d:d9:4d:bd:41:51:
         a8:57:5b:b9:e2:ef:0c:61:68:83:9d:66:de:72:66:62:3c:b3:
         fe:f1:39:24:fe:4c:8c:9f:ca:d5:4e:fb:a2:9f:b2:a4:a6:94:
         1c:e1:d4:12:1a:f4:2f:72:ea:47:e4:89:da:47:2e:aa:40:96:
         f6:91:df:18:56:8a:a6:e2:1e:3c:71:44:fa:f9:4a:ba:60:46:
         8b:43:9e:3e:c7:0d:41:5d:3b:b3:1f:5f:5b:d5:08:e3:0e:ad:
         a1:6d:5e:ab:8e:6d:15:f9:97:b5:ab:69:46:54:b4:59:5b:32:
         95:45:f8:55:42:6c:a6:ca:54:1c:5c:b2:fe:9c:43:8c:5c:80:
         04:f9:36:94:1d:fb:bf:2a:ef:64:fc:1e:93:f0:c9:dc:4d:cd:
         d8:97:c5:5e:4e:62:38:4e:1b:0d:2a:a8:25:b6:a3:44:bd:fd:
         f3:34:f6:0e:fc:6b:11:9b:35:1d:05:7f:51:99:60:21:dd:b7:
         7a:7b:8d:d9
-----BEGIN CERTIFICATE-----
MIIDxjCCAq6gAwIBAgIJAOa8mUp8ND34MA0GCSqGSIb3DQEBCwUAMHgxCzAJBgNV
BAYTAlVBMQswCQYDVQQIDAJDTjEUMBIGA1UECgwLRmlyc3RCcmlkZ2UxFzAVBgNV
BAsMDkZpcnN0QnJpZGdlLUNOMREwDwYDVQQDDAhhbC5jbi51YTEaMBgGCSqGSIb3
DQEJARYLYWxAYWwuY24udWEwHhcNMTgwODE1MTA1MzQ2WhcNMjEwODE0MTA1MzQ2
WjB4MQswCQYDVQQGEwJVQTELMAkGA1UECAwCQ04xFDASBgNVBAoMC0ZpcnN0QnJp
ZGdlMRcwFQYDVQQLDA5GaXJzdEJyaWRnZS1DTjERMA8GA1UEAwwIYWwuY24udWEx
GjAYBgkqhkiG9w0BCQEWC2FsQGFsLmNuLnVhMIIBIjANBgkqhkiG9w0BAQEFAAOC
AQ8AMIIBCgKCAQEA7clpJhzGkcnQQx9xFybaAqq9YhbV0yWMLXWG/Q2vaRBh0ene
QZWXhdicXicLyMAQ3nOf6c0TPlI2Xie7ulOoRmV7MKuo0qWFAnMKimICVNl3zltc
CptJJ1TmqJ8Qg+GmkLIvFHShr7nZqbM+AKOK1+AbrkeKAab2hzMLSgQFT1R785pR
w4VtPIUG+Ye7aImxAz1Y9KRH9OTnCdOU4D65cdAgrW8+PS1HjYmlsYEBz7BpiDbo
0PCb5BLUUAfnqqgZYNMz3He/8NI6eYFc/Ilil2Hp3oQQRL1+DsHgdVxJtf/lA4zq
ZynjmuL7aRQejlgYFicxFTDKzWE14qSsSSu93wIDAQABo1MwUTAdBgNVHQ4EFgQU
EPiiMAgEEmHa+NvpYpAex5C65wEwHwYDVR0jBBgwFoAUEPiiMAgEEmHa+NvpYpAe
x5C65wEwDwYDVR0TAQH/BAUwAwEB/zANBgkqhkiG9w0BAQsFAAOCAQEA0MgvG8aE
F3MWOnqWBiTU6kn+X9RjKUq3vAkYA8X0vNrykFMUk9nkVAppIVnCza4w9AIl9pIX
Qe8Xo92yFXgGBExjDdlNvUFRqFdbueLvDGFog51m3nJmYjyz/vE5JP5MjJ/K1U77
op+ypKaUHOHUEhr0L3LqR+SJ2kcuqkCW9pHfGFaKpuIePHFE+vlKumBGi0OePscN
QV07sx9fW9UI4w6toW1eq45tFfmXtatpRlS0WVsylUX4VUJspspUHFyy/pxDjFyA
BPk2lB37vyrvZPwek/DJ3E3N2JfFXk5iOE4bDSqoJbajRL398zT2DvxrEZs1HQV/
UZlgId23enuN2Q==
-----END CERTIFICATE-----
