Certificate:
    Data:
        Version: 3 (0x2)
        Serial Number:
            e6:bc:99:4a:7c:34:3d:fb
    Signature Algorithm: sha256WithRSAEncryption
        Issuer: C=UA, ST=CN, O=vimana, OU=vimana-CN, CN=al.cn.ua/emailAddress=al@al.cn.ua
        Validity
            Not Before: Aug 15 11:15:01 2018 GMT
            Not After : Aug 15 11:15:01 2019 GMT
        Subject: C=UA, L=Chernigiv, O=vimana, OU=FB-cn, CN=test2@al.cn.ua/emailAddress=alukin@gmail.com
        Subject Public Key Info:
            Public Key Algorithm: id-ecPublicKey
                Public-Key: (521 bit)
                pub:
                    04:00:1b:4b:13:ba:73:ef:56:0a:33:94:c0:aa:4e:
                    a1:d2:ca:fc:7a:73:07:6f:7d:77:bf:9a:96:ad:99:
                    65:00:7d:6a:05:1f:e0:e5:31:0f:fa:fd:a2:a3:b0:
                    c5:04:04:14:cd:7a:9c:82:97:7a:55:ef:b7:22:b4:
                    c3:96:81:72:f3:bd:dc:01:b5:2d:09:d6:3f:d7:8a:
                    16:8a:96:2a:4e:ac:13:cc:fb:36:39:59:0f:c7:01:
                    c7:5c:02:66:6f:dd:05:6d:39:ae:da:5c:7d:86:01:
                    0a:91:f7:a8:f3:33:5a:a4:1b:36:56:22:f5:74:93:
                    e5:d8:87:83:fe:c2:ad:f5:ad:12:39:3c:17
                ASN1 OID: secp521r1
                NIST CURVE: P-521
        X509v3 extensions:
            X509v3 Basic Constraints: 
                CA:FALSE
            Netscape Comment: 
                OpenSSL Generated Certificate
            X509v3 Subject Key Identifier: 
                95:F9:81:16:A8:F0:2F:81:DE:4A:38:C3:66:09:27:73:53:1E:61:2A
            X509v3 Authority Key Identifier: 
                keyid:10:F8:A2:30:08:04:12:61:DA:F8:DB:E9:62:90:1E:C7:90:BA:E7:01

    Signature Algorithm: sha256WithRSAEncryption
         0c:4b:20:52:4a:dd:a6:7f:24:8a:fe:ce:bb:e6:9b:05:3e:13:
         d8:be:71:0b:e3:7b:d8:42:c4:7c:0a:2f:a0:13:0e:23:2d:d1:
         c8:ff:33:32:e4:22:db:5c:6b:b3:37:c0:e5:d1:11:7b:68:1f:
         9a:02:77:5b:8b:91:ef:50:ee:62:b1:f3:11:bc:76:b1:a6:29:
         1e:44:50:ca:a0:09:b7:26:af:c5:ec:cb:64:16:71:42:a3:15:
         fc:cc:b4:98:f1:29:0c:1d:db:81:7d:71:2d:b8:6b:ae:43:65:
         c4:13:5f:72:3c:0e:f5:4f:57:a7:cd:42:ff:5e:a9:13:47:e2:
         40:12:e1:2a:a9:55:c4:8c:42:f1:66:ba:8c:ab:82:8d:c4:91:
         8e:ca:d6:4a:95:52:42:dc:8e:13:b7:7f:a2:52:78:96:eb:b0:
         ff:1e:e9:6e:fa:40:9a:53:c1:30:75:6d:a9:a6:12:c8:2a:77:
         54:7a:d3:e8:ba:0d:df:05:8f:14:9c:05:1b:b8:b5:d4:34:8d:
         03:1b:97:8d:ff:e1:e6:5b:df:75:44:bb:d1:77:b8:fb:14:b5:
         b5:d3:c4:28:e1:18:19:77:ec:08:8f:ce:8a:1c:4a:a7:0c:82:
         ec:89:9b:1e:6d:48:76:57:dd:7a:5b:d0:b6:ad:73:51:f6:72:
         e6:29:39:6c
-----BEGIN CERTIFICATE-----
MIIDcDCCAligAwIBAgIJAOa8mUp8ND37MA0GCSqGSIb3DQEBCwUAMHgxCzAJBgNV
BAYTAlVBMQswCQYDVQQIDAJDTjEUMBIGA1UECgwLRmlyc3RCcmlkZ2UxFzAVBgNV
BAsMDkZpcnN0QnJpZGdlLUNOMREwDwYDVQQDDAhhbC5jbi51YTEaMBgGCSqGSIb3
DQEJARYLYWxAYWwuY24udWEwHhcNMTgwODE1MTExNTAxWhcNMTkwODE1MTExNTAx
WjCBgTELMAkGA1UEBhMCVUExEjAQBgNVBAcMCUNoZXJuaWdpdjEUMBIGA1UECgwL
Rmlyc3RCcmlkZ2UxDjAMBgNVBAsMBUZCLWNuMRcwFQYDVQQDDA50ZXN0MkBhbC5j
bi51YTEfMB0GCSqGSIb3DQEJARYQYWx1a2luQGdtYWlsLmNvbTCBmzAQBgcqhkjO
PQIBBgUrgQQAIwOBhgAEABtLE7pz71YKM5TAqk6h0sr8enMHb313v5qWrZllAH1q
BR/g5TEP+v2io7DFBAQUzXqcgpd6Ve+3IrTDloFy873cAbUtCdY/14oWipYqTqwT
zPs2OVkPxwHHXAJmb90FbTmu2lx9hgEKkfeo8zNapBs2ViL1dJPl2IeD/sKt9a0S
OTwXo3sweTAJBgNVHRMEAjAAMCwGCWCGSAGG+EIBDQQfFh1PcGVuU1NMIEdlbmVy
YXRlZCBDZXJ0aWZpY2F0ZTAdBgNVHQ4EFgQUlfmBFqjwL4HeSjjDZgknc1MeYSow
HwYDVR0jBBgwFoAUEPiiMAgEEmHa+NvpYpAex5C65wEwDQYJKoZIhvcNAQELBQAD
ggEBAAxLIFJK3aZ/JIr+zrvmmwU+E9i+cQvje9hCxHwKL6ATDiMt0cj/MzLkIttc
a7M3wOXREXtoH5oCd1uLke9Q7mKx8xG8drGmKR5EUMqgCbcmr8Xsy2QWcUKjFfzM
tJjxKQwd24F9cS24a65DZcQTX3I8DvVPV6fNQv9eqRNH4kAS4SqpVcSMQvFmuoyr
go3EkY7K1kqVUkLcjhO3f6JSeJbrsP8e6W76QJpTwTB1bammEsgqd1R60+i6Dd8F
jxScBRu4tdQ0jQMbl43/4eZb33VEu9F3uPsUtbXTxCjhGBl37AiPzoocSqcMguyJ
mx5tSHZX3Xpb0Latc1H2cuYpOWw=
-----END CERTIFICATE-----
