Certificate:
    Data:
        Version: 3 (0x2)
        Serial Number:
            e6:bc:99:4a:7c:34:3d:fa
    Signature Algorithm: sha256WithRSAEncryption
        Issuer: C=UA, ST=CN, O=vimana, OU=vimana-CN, CN=al.cn.ua/emailAddress=al@al.cn.ua
        Validity
            Not Before: Aug 15 11:09:59 2018 GMT
            Not After : Aug 15 11:09:59 2019 GMT
        Subject: C=UA, L=Chernigiv, O=vimana, OU=FB-cn, CN=test1@al.cn.ua/emailAddress=alukin@gmail.com
        Subject Public Key Info:
            Public Key Algorithm: id-ecPublicKey
                Public-Key: (521 bit)
                pub:
                    04:00:5a:ca:34:4e:4e:55:ff:85:8a:da:a3:52:c9:
                    75:aa:a7:cd:a9:d1:3f:2d:53:46:03:f9:9c:ac:9e:
                    03:ce:b1:ec:05:56:98:4f:05:10:81:42:a8:a0:8e:
                    4f:cc:6d:3c:8e:c4:b0:36:fc:17:7c:44:ab:6b:73:
                    51:fb:87:09:ea:8b:60:00:4c:96:25:d6:16:d1:99:
                    67:1c:bc:8f:f3:78:34:b3:0d:d2:56:99:37:7b:fb:
                    06:9c:06:56:f3:92:c7:38:58:63:cc:dd:fe:5d:35:
                    47:26:51:64:38:f4:53:87:90:8b:ce:57:30:80:f3:
                    91:f8:42:50:0c:1c:35:d5:e6:d7:39:d5:dc
                ASN1 OID: secp521r1
                NIST CURVE: P-521
        X509v3 extensions:
            X509v3 Basic Constraints: 
                CA:FALSE
            Netscape Comment: 
                OpenSSL Generated Certificate
            X509v3 Subject Key Identifier: 
                28:5D:86:D0:DF:F0:7A:2B:02:D0:A1:69:CE:69:FD:6A:29:46:A6:B1
            X509v3 Authority Key Identifier: 
                keyid:10:F8:A2:30:08:04:12:61:DA:F8:DB:E9:62:90:1E:C7:90:BA:E7:01

    Signature Algorithm: sha256WithRSAEncryption
         e5:6e:ad:ef:e6:3c:ed:29:c7:ac:78:d7:e9:5c:00:b7:8e:b1:
         1c:a3:0b:0f:f3:90:8e:02:26:03:9d:3c:86:1e:90:1a:af:03:
         f6:f1:20:48:f7:87:71:b5:2b:2c:2d:5b:df:17:6b:63:f3:9e:
         78:28:9d:a9:4f:f2:97:c2:52:6e:fb:cb:b9:92:e2:3a:35:f9:
         cd:09:39:f3:3b:c1:23:64:5c:84:f8:7b:9b:09:ed:1e:98:ad:
         f2:6f:48:60:35:01:7a:e5:ca:6d:6c:16:13:84:ba:d3:77:a0:
         6c:17:75:88:a3:8e:9e:44:6c:6f:b2:23:f3:95:1d:2a:0a:1e:
         19:dc:f9:15:a9:a5:d6:78:90:81:2f:c9:55:35:a2:51:c5:82:
         ac:a8:5c:08:da:29:51:5e:8c:54:18:08:08:1a:9f:7b:d3:9c:
         63:9b:7f:96:b4:5b:57:7b:1a:41:bd:c0:37:c3:3f:ce:78:c7:
         99:2b:42:67:14:cc:ab:1a:7e:6b:ab:87:f0:14:d0:b4:b7:37:
         5d:a2:4f:fd:d1:5c:b3:7e:18:67:bd:6f:8e:b6:4b:e9:b1:4b:
         94:73:0b:16:82:18:ed:cb:26:f4:94:d2:b6:1c:33:b0:51:b5:
         e6:eb:3e:05:a3:e5:90:d9:50:35:7a:13:7c:2d:20:9d:71:d6:
         37:52:e6:84
-----BEGIN CERTIFICATE-----
MIIDcDCCAligAwIBAgIJAOa8mUp8ND36MA0GCSqGSIb3DQEBCwUAMHgxCzAJBgNV
BAYTAlVBMQswCQYDVQQIDAJDTjEUMBIGA1UECgwLRmlyc3RCcmlkZ2UxFzAVBgNV
BAsMDkZpcnN0QnJpZGdlLUNOMREwDwYDVQQDDAhhbC5jbi51YTEaMBgGCSqGSIb3
DQEJARYLYWxAYWwuY24udWEwHhcNMTgwODE1MTEwOTU5WhcNMTkwODE1MTEwOTU5
WjCBgTELMAkGA1UEBhMCVUExEjAQBgNVBAcMCUNoZXJuaWdpdjEUMBIGA1UECgwL
Rmlyc3RCcmlkZ2UxDjAMBgNVBAsMBUZCLWNuMRcwFQYDVQQDDA50ZXN0MUBhbC5j
bi51YTEfMB0GCSqGSIb3DQEJARYQYWx1a2luQGdtYWlsLmNvbTCBmzAQBgcqhkjO
PQIBBgUrgQQAIwOBhgAEAFrKNE5OVf+FitqjUsl1qqfNqdE/LVNGA/mcrJ4DzrHs
BVaYTwUQgUKooI5PzG08jsSwNvwXfESra3NR+4cJ6otgAEyWJdYW0ZlnHLyP83g0
sw3SVpk3e/sGnAZW85LHOFhjzN3+XTVHJlFkOPRTh5CLzlcwgPOR+EJQDBw11ebX
OdXco3sweTAJBgNVHRMEAjAAMCwGCWCGSAGG+EIBDQQfFh1PcGVuU1NMIEdlbmVy
YXRlZCBDZXJ0aWZpY2F0ZTAdBgNVHQ4EFgQUKF2G0N/weisC0KFpzmn9ailGprEw
HwYDVR0jBBgwFoAUEPiiMAgEEmHa+NvpYpAex5C65wEwDQYJKoZIhvcNAQELBQAD
ggEBAOVure/mPO0px6x41+lcALeOsRyjCw/zkI4CJgOdPIYekBqvA/bxIEj3h3G1
KywtW98Xa2PznngonalP8pfCUm77y7mS4jo1+c0JOfM7wSNkXIT4e5sJ7R6YrfJv
SGA1AXrlym1sFhOEutN3oGwXdYijjp5EbG+yI/OVHSoKHhnc+RWppdZ4kIEvyVU1
olHFgqyoXAjaKVFejFQYCAgan3vTnGObf5a0W1d7GkG9wDfDP854x5krQmcUzKsa
fmurh/AU0LS3N12iT/3RXLN+GGe9b462S+mxS5RzCxaCGO3LJvSU0rYcM7BRtebr
PgWj5ZDZUDV6E3wtIJ1x1jdS5oQ=
-----END CERTIFICATE-----
