Certificate:
    Data:
        Version: 3 (0x2)
        Serial Number:
            e6:bc:99:4a:7c:34:3d:fc
    Signature Algorithm: sha256WithRSAEncryption
        Issuer: C=UA, ST=CN, O=vimana, OU=vimana-CN, CN=al.cn.ua/emailAddress=al@al.cn.ua
        Validity
            Not Before: Aug 15 11:20:01 2018 GMT
            Not After : Aug 15 11:20:01 2019 GMT
        Subject: C=UA, L=Chernigiv, O=vimana, OU=FB-cn, CN=test3@al.cn.ua/emailAddress=alukin@gmail.com
        Subject Public Key Info:
            Public Key Algorithm: id-ecPublicKey
                Public-Key: (521 bit)
                pub:
                    04:00:a0:ae:a5:a2:69:10:00:b4:27:86:2e:31:a3:
                    c1:a0:5e:68:62:b0:9c:27:6d:12:8f:5b:d2:c3:d5:
                    3c:a1:3f:92:99:a3:69:cf:d1:c5:dd:50:fc:57:6c:
                    18:52:50:8d:a9:eb:70:f2:1d:64:b9:02:88:61:e3:
                    31:1f:cd:41:c8:ba:fb:00:1c:98:b0:95:1f:0b:a9:
                    fc:e5:b2:b4:e6:89:f2:ae:a9:bd:67:70:59:e0:5e:
                    ae:a7:c3:ae:38:e3:6a:89:4a:7a:c9:30:55:09:01:
                    62:db:ee:ac:e6:b9:ab:59:11:4c:1a:66:f1:43:29:
                    8f:81:db:b2:43:09:6b:a1:f1:91:09:62:d7
                ASN1 OID: secp521r1
                NIST CURVE: P-521
        X509v3 extensions:
            X509v3 Basic Constraints: 
                CA:FALSE
            Netscape Comment: 
                OpenSSL Generated Certificate
            X509v3 Subject Key Identifier: 
                A2:1E:55:82:75:F3:4B:8E:A2:F9:0B:1B:03:89:5A:FB:98:D0:B8:FD
            X509v3 Authority Key Identifier: 
                keyid:10:F8:A2:30:08:04:12:61:DA:F8:DB:E9:62:90:1E:C7:90:BA:E7:01

    Signature Algorithm: sha256WithRSAEncryption
         e5:23:e9:a1:28:9a:cb:19:3b:0e:ba:b4:8d:d5:cf:52:53:23:
         df:7f:aa:a8:07:1f:ff:08:67:c2:ff:e8:b8:1d:a3:6e:85:d9:
         ff:9c:60:1a:da:ee:ce:31:fc:a2:b4:26:1a:8d:9a:dd:00:37:
         79:d7:7d:72:a2:ed:32:a2:e3:ec:0c:47:73:e2:6b:fb:70:ee:
         e1:ba:cf:58:b1:52:d0:8e:8b:1a:1b:a1:16:35:80:01:1f:28:
         1d:15:47:4a:66:f6:52:64:8a:5d:c9:c3:30:c7:70:6e:c8:89:
         60:da:43:ee:56:8a:48:be:4f:69:62:5c:9b:c7:18:34:a4:87:
         5f:4c:d2:e8:a6:fc:24:c6:ef:5a:67:69:5f:e5:c0:de:23:d9:
         87:b2:63:f7:b9:d0:8b:17:9e:e1:9f:ac:d7:34:8c:a1:01:7f:
         e5:b5:3c:1e:21:2f:fa:5e:3f:21:88:e1:a6:fe:5d:48:99:28:
         32:ae:23:1f:e5:39:1e:5a:2f:05:e7:4e:ef:f9:af:62:85:25:
         64:ed:c8:c8:46:31:2e:69:5d:db:44:09:fd:3b:d6:eb:68:c9:
         a1:f7:37:b3:3d:41:7f:e6:38:58:7b:4e:5e:d4:83:b3:a0:c5:
         15:e8:b8:9e:c8:1b:32:65:d8:d5:bd:a5:38:be:c6:81:78:35:
         16:2a:47:fa
-----BEGIN CERTIFICATE-----
MIIDcDCCAligAwIBAgIJAOa8mUp8ND38MA0GCSqGSIb3DQEBCwUAMHgxCzAJBgNV
BAYTAlVBMQswCQYDVQQIDAJDTjEUMBIGA1UECgwLRmlyc3RCcmlkZ2UxFzAVBgNV
BAsMDkZpcnN0QnJpZGdlLUNOMREwDwYDVQQDDAhhbC5jbi51YTEaMBgGCSqGSIb3
DQEJARYLYWxAYWwuY24udWEwHhcNMTgwODE1MTEyMDAxWhcNMTkwODE1MTEyMDAx
WjCBgTELMAkGA1UEBhMCVUExEjAQBgNVBAcMCUNoZXJuaWdpdjEUMBIGA1UECgwL
Rmlyc3RCcmlkZ2UxDjAMBgNVBAsMBUZCLWNuMRcwFQYDVQQDDA50ZXN0M0BhbC5j
bi51YTEfMB0GCSqGSIb3DQEJARYQYWx1a2luQGdtYWlsLmNvbTCBmzAQBgcqhkjO
PQIBBgUrgQQAIwOBhgAEAKCupaJpEAC0J4YuMaPBoF5oYrCcJ20Sj1vSw9U8oT+S
maNpz9HF3VD8V2wYUlCNqetw8h1kuQKIYeMxH81ByLr7AByYsJUfC6n85bK05ony
rqm9Z3BZ4F6up8OuOONqiUp6yTBVCQFi2+6s5rmrWRFMGmbxQymPgduyQwlrofGR
CWLXo3sweTAJBgNVHRMEAjAAMCwGCWCGSAGG+EIBDQQfFh1PcGVuU1NMIEdlbmVy
YXRlZCBDZXJ0aWZpY2F0ZTAdBgNVHQ4EFgQUoh5VgnXzS46i+QsbA4la+5jQuP0w
HwYDVR0jBBgwFoAUEPiiMAgEEmHa+NvpYpAex5C65wEwDQYJKoZIhvcNAQELBQAD
ggEBAOUj6aEomssZOw66tI3Vz1JTI99/qqgHH/8IZ8L/6Lgdo26F2f+cYBra7s4x
/KK0JhqNmt0AN3nXfXKi7TKi4+wMR3Pia/tw7uG6z1ixUtCOixoboRY1gAEfKB0V
R0pm9lJkil3JwzDHcG7IiWDaQ+5Wiki+T2liXJvHGDSkh19M0uim/CTG71pnaV/l
wN4j2YeyY/e50IsXnuGfrNc0jKEBf+W1PB4hL/pePyGI4ab+XUiZKDKuIx/lOR5a
LwXnTu/5r2KFJWTtyMhGMS5pXdtECf071utoyaH3N7M9QX/mOFh7Tl7Ug7OgxRXo
uJ7IGzJl2NW9pTi+xoF4NRYqR/o=
-----END CERTIFICATE-----
